; Function Attrs: mustprogress uwtable
define hidden void @_ZN3sls10smt_plugin15import_from_slsEv(ptr noundef nonnull align 8 dereferenceable(3024) %0) local_unnamed_addr #3 align 2 personality ptr @__gxx_personality_v0 {
  %2 = getelementptr inbounds nuw i8, ptr %0, i64 2952
  %3 = load atomic i8, ptr %2 seq_cst, align 8
  %4 = trunc i8 %3 to i1
  br i1 %4, label %5, label %14

5:                                                ; preds = %1
  %6 = getelementptr inbounds nuw i8, ptr %0, i64 2824
  %7 = tail call noundef i32 @pthread_mutex_lock(ptr noundef nonnull align 8 dereferenceable(40) %6) #23
  %.not.i.i = icmp eq i32 %7, 0
  br i1 %.not.i.i, label %_ZNSt10lock_guardISt5mutexEC2ERS0_.exit, label %8

8:                                                ; preds = %5
  tail call void @_ZSt20__throw_system_errori(i32 noundef %7) #27
  unreachable

_ZNSt10lock_guardISt5mutexEC2ERS0_.exit:          ; preds = %5
  invoke void @_ZN3sls10smt_plugin17sls_values_to_smtEv(ptr noundef nonnull align 8 dereferenceable(3024) %0)
          to label %9 unwind label %11

9:                                                ; preds = %_ZNSt10lock_guardISt5mutexEC2ERS0_.exit
  store atomic i8 0, ptr %2 seq_cst, align 8
  %10 = tail call noundef i32 @pthread_mutex_unlock(ptr noundef nonnull align 8 dereferenceable(40) %6) #23
  br label %14

11:                                               ; preds = %_ZNSt10lock_guardISt5mutexEC2ERS0_.exit
  %12 = landingpad { ptr, i32 }
          cleanup
  %13 = tail call noundef i32 @pthread_mutex_unlock(ptr noundef nonnull align 8 dereferenceable(40) %6) #23
  resume { ptr, i32 } %12

14:                                               ; preds = %9, %1
  %15 = getelementptr inbounds nuw i8, ptr %0, i64 2985
  %16 = load atomic i8, ptr %15 seq_cst, align 1
  %17 = trunc i8 %16 to i1
  br i1 %17, label %18, label %26

18:                                               ; preds = %14
  %19 = getelementptr inbounds nuw i8, ptr %0, i64 2824
  %20 = tail call noundef i32 @pthread_mutex_lock(ptr noundef nonnull align 8 dereferenceable(40) %19) #23
  %.not.i.i2 = icmp eq i32 %20, 0
  br i1 %.not.i.i2, label %_ZNSt10lock_guardISt5mutexEC2ERS0_.exit3, label %21

21:                                               ; preds = %18
  tail call void @_ZSt20__throw_system_errori(i32 noundef %20) #27
  unreachable

_ZNSt10lock_guardISt5mutexEC2ERS0_.exit3:         ; preds = %18
  %22 = load atomic i8, ptr %15 seq_cst, align 1
  %23 = trunc i8 %22 to i1
  br i1 %23, label %24, label %_ZN3sls10smt_plugin16sls_phase_to_smtEv.exit

24:                                               ; preds = %_ZNSt10lock_guardISt5mutexEC2ERS0_.exit3
  store atomic i8 0, ptr %15 seq_cst, align 1
  br label %_ZN3sls10smt_plugin16sls_phase_to_smtEv.exit

_ZN3sls10smt_plugin16sls_phase_to_smtEv.exit:     ; preds = %_ZNSt10lock_guardISt5mutexEC2ERS0_.exit3, %24
  store atomic i8 0, ptr %15 seq_cst, align 1
  %25 = tail call noundef i32 @pthread_mutex_unlock(ptr noundef nonnull align 8 dereferenceable(40) %19) #23
  br label %26

26:                                               ; preds = %_ZN3sls10smt_plugin16sls_phase_to_smtEv.exit, %14
  ret void
}